; ModuleID = 'source-C-CXX/9/493.cpp'
source_filename = "source-C-CXX/9/493.cpp"
target datalayout = "e-m:e-p270:32:32-p271:32:32-p272:64:64-i64:64-f80:128-n8:16:32:64-S128"
target triple = "x86_64-pc-linux-gnu"

%"class.std::ios_base::Init" = type { i8 }
%"class.std::basic_istream" = type { i32 (...)**, i64, %"class.std::basic_ios" }
%"class.std::basic_ios" = type { %"class.std::ios_base", %"class.std::basic_ostream"*, i8, i8, %"class.std::basic_streambuf"*, %"class.std::ctype"*, %"class.std::num_put"*, %"class.std::num_get"* }
%"class.std::ios_base" = type { i32 (...)**, i64, i64, i32, i32, i32, %"struct.std::ios_base::_Callback_list"*, %"struct.std::ios_base::_Words", [8 x %"struct.std::ios_base::_Words"], i32, %"struct.std::ios_base::_Words"*, %"class.std::locale" }
%"struct.std::ios_base::_Callback_list" = type { %"struct.std::ios_base::_Callback_list"*, void (i32, %"class.std::ios_base"*, i32)*, i32, i32 }
%"struct.std::ios_base::_Words" = type { i8*, i64 }
%"class.std::locale" = type { %"class.std::locale::_Impl"* }
%"class.std::locale::_Impl" = type { i32, %"class.std::locale::facet"**, i64, %"class.std::locale::facet"**, i8** }
%"class.std::locale::facet" = type <{ i32 (...)**, i32, [4 x i8] }>
%"class.std::basic_ostream" = type { i32 (...)**, %"class.std::basic_ios" }
%"class.std::basic_streambuf" = type { i32 (...)**, i8*, i8*, i8*, i8*, i8*, i8*, %"class.std::locale" }
%"class.std::ctype" = type <{ %"class.std::locale::facet.base", [4 x i8], %struct.__locale_struct*, i8, [7 x i8], i32*, i32*, i16*, i8, [256 x i8], [256 x i8], i8, [6 x i8] }>
%"class.std::locale::facet.base" = type <{ i32 (...)**, i32 }>
%struct.__locale_struct = type { [13 x %struct.__locale_data*], i16*, i32*, i32*, [13 x i8*] }
%struct.__locale_data = type opaque
%"class.std::num_put" = type { %"class.std::locale::facet.base", [4 x i8] }
%"class.std::num_get" = type { %"class.std::locale::facet.base", [4 x i8] }

@_ZStL8__ioinit = internal global %"class.std::ios_base::Init" zeroinitializer, align 1
@__dso_handle = external hidden global i8
@_ZSt3cin = external global %"class.std::basic_istream", align 8
@_ZSt4cout = external global %"class.std::basic_ostream", align 8
@llvm.global_ctors = appending global [1 x { i32, void ()*, i8* }] [{ i32, void ()*, i8* } { i32 65535, void ()* @_GLOBAL__sub_I_493.cpp, i8* null }]

declare void @_ZNSt8ios_base4InitC1Ev(%"class.std::ios_base::Init"* nonnull align 1 dereferenceable(1)) unnamed_addr #0

; Function Attrs: nounwind
declare void @_ZNSt8ios_base4InitD1Ev(%"class.std::ios_base::Init"* nonnull align 1 dereferenceable(1)) unnamed_addr #1

; Function Attrs: nofree nounwind
declare i32 @__cxa_atexit(void (i8*)*, i8*, i8*) local_unnamed_addr #2

; Function Attrs: mustprogress norecurse sspstrong uwtable
define dso_local i32 @main() local_unnamed_addr #3 {
  %1 = alloca i32, align 4
  %2 = alloca [26 x i32], align 16
  %3 = alloca [200 x i32], align 16
  %4 = bitcast i32* %1 to i8*
  call void @llvm.lifetime.start.p0i8(i64 4, i8* nonnull %4) #9
  %5 = bitcast [26 x i32]* %2 to i8*
  call void @llvm.lifetime.start.p0i8(i64 104, i8* nonnull %5) #9
  %6 = bitcast [200 x i32]* %3 to i8*
  call void @llvm.lifetime.start.p0i8(i64 800, i8* nonnull %6) #9
  call void @llvm.memset.p0i8.i64(i8* noundef nonnull align 16 dereferenceable(800) %6, i8 0, i64 800, i1 false)
  %7 = call nonnull align 8 dereferenceable(16) %"class.std::basic_istream"* @_ZNSirsERi(%"class.std::basic_istream"* nonnull align 8 dereferenceable(16) @_ZSt3cin, i32* nonnull align 4 dereferenceable(4) %1)
  %8 = load i32, i32* %1, align 4, !tbaa !5
  %9 = icmp sgt i32 %8, 0
  br i1 %9, label %14, label %128

10:                                               ; preds = %14
  %11 = icmp sgt i32 %20, 1
  br i1 %11, label %12, label %28

12:                                               ; preds = %10
  %13 = zext i32 %20 to i64
  br label %23

14:                                               ; preds = %0, %14
  %15 = phi i64 [ %19, %14 ], [ 0, %0 ]
  %16 = getelementptr inbounds [26 x i32], [26 x i32]* %2, i64 0, i64 %15
  %17 = call nonnull align 8 dereferenceable(16) %"class.std::basic_istream"* @_ZNSirsERi(%"class.std::basic_istream"* nonnull align 8 dereferenceable(16) @_ZSt3cin, i32* nonnull align 4 dereferenceable(4) %16)
  %18 = getelementptr inbounds [200 x i32], [200 x i32]* %3, i64 0, i64 %15
  store i32 1, i32* %18, align 4, !tbaa !5
  %19 = add nuw nsw i64 %15, 1
  %20 = load i32, i32* %1, align 4, !tbaa !5
  %21 = sext i32 %20 to i64
  %22 = icmp slt i64 %19, %21
  br i1 %22, label %14, label %10, !llvm.loop !9

23:                                               ; preds = %12, %116
  %24 = phi i64 [ 1, %12 ], [ %117, %116 ]
  %25 = getelementptr inbounds [26 x i32], [26 x i32]* %2, i64 0, i64 %24
  %26 = load i32, i32* %25, align 4, !tbaa !5
  %27 = getelementptr inbounds [200 x i32], [200 x i32]* %3, i64 0, i64 %24
  br label %99

28:                                               ; preds = %116, %10
  %29 = icmp sgt i32 %20, 0
  br i1 %29, label %30, label %128

30:                                               ; preds = %28
  %31 = zext i32 %20 to i64
  %32 = icmp ult i32 %20, 8
  br i1 %32, label %96, label %33

33:                                               ; preds = %30
  %34 = and i64 %31, 4294967288
  %35 = add nsw i64 %34, -8
  %36 = lshr exact i64 %35, 3
  %37 = add nuw nsw i64 %36, 1
  %38 = and i64 %37, 1
  %39 = icmp eq i64 %35, 0
  br i1 %39, label %71, label %40

40:                                               ; preds = %33
  %41 = and i64 %37, 4611686018427387902
  br label %42

42:                                               ; preds = %42, %40
  %43 = phi i64 [ 0, %40 ], [ %68, %42 ]
  %44 = phi <4 x i32> [ zeroinitializer, %40 ], [ %66, %42 ]
  %45 = phi <4 x i32> [ zeroinitializer, %40 ], [ %67, %42 ]
  %46 = phi i64 [ %41, %40 ], [ %69, %42 ]
  %47 = getelementptr inbounds [200 x i32], [200 x i32]* %3, i64 0, i64 %43
  %48 = bitcast i32* %47 to <4 x i32>*
  %49 = load <4 x i32>, <4 x i32>* %48, align 16, !tbaa !5
  %50 = getelementptr inbounds i32, i32* %47, i64 4
  %51 = bitcast i32* %50 to <4 x i32>*
  %52 = load <4 x i32>, <4 x i32>* %51, align 16, !tbaa !5
  %53 = icmp sgt <4 x i32> %49, %44
  %54 = icmp sgt <4 x i32> %52, %45
  %55 = select <4 x i1> %53, <4 x i32> %49, <4 x i32> %44
  %56 = select <4 x i1> %54, <4 x i32> %52, <4 x i32> %45
  %57 = or i64 %43, 8
  %58 = getelementptr inbounds [200 x i32], [200 x i32]* %3, i64 0, i64 %57
  %59 = bitcast i32* %58 to <4 x i32>*
  %60 = load <4 x i32>, <4 x i32>* %59, align 16, !tbaa !5
  %61 = getelementptr inbounds i32, i32* %58, i64 4
  %62 = bitcast i32* %61 to <4 x i32>*
  %63 = load <4 x i32>, <4 x i32>* %62, align 16, !tbaa !5
  %64 = icmp sgt <4 x i32> %60, %55
  %65 = icmp sgt <4 x i32> %63, %56
  %66 = select <4 x i1> %64, <4 x i32> %60, <4 x i32> %55
  %67 = select <4 x i1> %65, <4 x i32> %63, <4 x i32> %56
  %68 = add nuw i64 %43, 16
  %69 = add i64 %46, -2
  %70 = icmp eq i64 %69, 0
  br i1 %70, label %71, label %42, !llvm.loop !11

71:                                               ; preds = %42, %33
  %72 = phi <4 x i32> [ undef, %33 ], [ %66, %42 ]
  %73 = phi <4 x i32> [ undef, %33 ], [ %67, %42 ]
  %74 = phi i64 [ 0, %33 ], [ %68, %42 ]
  %75 = phi <4 x i32> [ zeroinitializer, %33 ], [ %66, %42 ]
  %76 = phi <4 x i32> [ zeroinitializer, %33 ], [ %67, %42 ]
  %77 = icmp eq i64 %38, 0
  br i1 %77, label %89, label %78

78:                                               ; preds = %71
  %79 = getelementptr inbounds [200 x i32], [200 x i32]* %3, i64 0, i64 %74
  %80 = bitcast i32* %79 to <4 x i32>*
  %81 = load <4 x i32>, <4 x i32>* %80, align 16, !tbaa !5
  %82 = getelementptr inbounds i32, i32* %79, i64 4
  %83 = bitcast i32* %82 to <4 x i32>*
  %84 = load <4 x i32>, <4 x i32>* %83, align 16, !tbaa !5
  %85 = icmp sgt <4 x i32> %84, %76
  %86 = select <4 x i1> %85, <4 x i32> %84, <4 x i32> %76
  %87 = icmp sgt <4 x i32> %81, %75
  %88 = select <4 x i1> %87, <4 x i32> %81, <4 x i32> %75
  br label %89

89:                                               ; preds = %71, %78
  %90 = phi <4 x i32> [ %72, %71 ], [ %88, %78 ]
  %91 = phi <4 x i32> [ %73, %71 ], [ %86, %78 ]
  %92 = icmp sgt <4 x i32> %90, %91
  %93 = select <4 x i1> %92, <4 x i32> %90, <4 x i32> %91
  %94 = call i32 @llvm.vector.reduce.smax.v4i32(<4 x i32> %93)
  %95 = icmp eq i64 %34, %31
  br i1 %95, label %128, label %96

96:                                               ; preds = %30, %89
  %97 = phi i64 [ 0, %30 ], [ %34, %89 ]
  %98 = phi i32 [ 0, %30 ], [ %94, %89 ]
  br label %119

99:                                               ; preds = %23, %113
  %100 = phi i64 [ %24, %23 ], [ %115, %113 ]
  %101 = add i64 %100, 4294967295
  %102 = and i64 %101, 4294967295
  %103 = getelementptr inbounds [26 x i32], [26 x i32]* %2, i64 0, i64 %102
  %104 = load i32, i32* %103, align 4, !tbaa !5
  %105 = icmp slt i32 %104, %26
  br i1 %105, label %113, label %106

106:                                              ; preds = %99
  %107 = getelementptr inbounds [200 x i32], [200 x i32]* %3, i64 0, i64 %102
  %108 = load i32, i32* %107, align 4, !tbaa !5
  %109 = load i32, i32* %27, align 4, !tbaa !5
  %110 = icmp slt i32 %108, %109
  br i1 %110, label %113, label %111

111:                                              ; preds = %106
  %112 = add nsw i32 %108, 1
  store i32 %112, i32* %27, align 4, !tbaa !5
  br label %113

113:                                              ; preds = %99, %106, %111
  %114 = icmp sgt i64 %100, 1
  %115 = add nsw i64 %100, -1
  br i1 %114, label %99, label %116, !llvm.loop !13

116:                                              ; preds = %113
  %117 = add nuw nsw i64 %24, 1
  %118 = icmp eq i64 %117, %13
  br i1 %118, label %28, label %23, !llvm.loop !14

119:                                              ; preds = %96, %119
  %120 = phi i64 [ %126, %119 ], [ %97, %96 ]
  %121 = phi i32 [ %125, %119 ], [ %98, %96 ]
  %122 = getelementptr inbounds [200 x i32], [200 x i32]* %3, i64 0, i64 %120
  %123 = load i32, i32* %122, align 4, !tbaa !5
  %124 = icmp sgt i32 %123, %121
  %125 = select i1 %124, i32 %123, i32 %121
  %126 = add nuw nsw i64 %120, 1
  %127 = icmp eq i64 %126, %31
  br i1 %127, label %128, label %119, !llvm.loop !15

128:                                              ; preds = %119, %89, %0, %28
  %129 = phi i32 [ 0, %28 ], [ 0, %0 ], [ %94, %89 ], [ %125, %119 ]
  %130 = call nonnull align 8 dereferenceable(8) %"class.std::basic_ostream"* @_ZNSolsEi(%"class.std::basic_ostream"* nonnull align 8 dereferenceable(8) @_ZSt4cout, i32 %129)
  %131 = bitcast %"class.std::basic_ostream"* %130 to i8**
  %132 = load i8*, i8** %131, align 8, !tbaa !17
  %133 = getelementptr i8, i8* %132, i64 -24
  %134 = bitcast i8* %133 to i64*
  %135 = load i64, i64* %134, align 8
  %136 = bitcast %"class.std::basic_ostream"* %130 to i8*
  %137 = add nsw i64 %135, 240
  %138 = getelementptr inbounds i8, i8* %136, i64 %137
  %139 = bitcast i8* %138 to %"class.std::ctype"**
  %140 = load %"class.std::ctype"*, %"class.std::ctype"** %139, align 8, !tbaa !19
  %141 = icmp eq %"class.std::ctype"* %140, null
  br i1 %141, label %142, label %143

142:                                              ; preds = %128
  call void @_ZSt16__throw_bad_castv() #10
  unreachable

143:                                              ; preds = %128
  %144 = getelementptr inbounds %"class.std::ctype", %"class.std::ctype"* %140, i64 0, i32 8
  %145 = load i8, i8* %144, align 8, !tbaa !23
  %146 = icmp eq i8 %145, 0
  br i1 %146, label %150, label %147

147:                                              ; preds = %143
  %148 = getelementptr inbounds %"class.std::ctype", %"class.std::ctype"* %140, i64 0, i32 9, i64 10
  %149 = load i8, i8* %148, align 1, !tbaa !25
  br label %156

150:                                              ; preds = %143
  call void @_ZNKSt5ctypeIcE13_M_widen_initEv(%"class.std::ctype"* nonnull align 8 dereferenceable(570) %140)
  %151 = bitcast %"class.std::ctype"* %140 to i8 (%"class.std::ctype"*, i8)***
  %152 = load i8 (%"class.std::ctype"*, i8)**, i8 (%"class.std::ctype"*, i8)*** %151, align 8, !tbaa !17
  %153 = getelementptr inbounds i8 (%"class.std::ctype"*, i8)*, i8 (%"class.std::ctype"*, i8)** %152, i64 6
  %154 = load i8 (%"class.std::ctype"*, i8)*, i8 (%"class.std::ctype"*, i8)** %153, align 8
  %155 = call signext i8 %154(%"class.std::ctype"* nonnull align 8 dereferenceable(570) %140, i8 signext 10)
  br label %156

156:                                              ; preds = %147, %150
  %157 = phi i8 [ %149, %147 ], [ %155, %150 ]
  %158 = call nonnull align 8 dereferenceable(8) %"class.std::basic_ostream"* @_ZNSo3putEc(%"class.std::basic_ostream"* nonnull align 8 dereferenceable(8) %130, i8 signext %157)
  %159 = call nonnull align 8 dereferenceable(8) %"class.std::basic_ostream"* @_ZNSo5flushEv(%"class.std::basic_ostream"* nonnull align 8 dereferenceable(8) %158)
  call void @llvm.lifetime.end.p0i8(i64 800, i8* nonnull %6) #9
  call void @llvm.lifetime.end.p0i8(i64 104, i8* nonnull %5) #9
  call void @llvm.lifetime.end.p0i8(i64 4, i8* nonnull %4) #9
  ret i32 0
}

; Function Attrs: argmemonly mustprogress nofree nosync nounwind willreturn
declare void @llvm.lifetime.start.p0i8(i64 immarg, i8* nocapture) #4

; Function Attrs: argmemonly mustprogress nofree nounwind willreturn writeonly
declare void @llvm.memset.p0i8.i64(i8* nocapture writeonly, i8, i64, i1 immarg) #5

declare nonnull align 8 dereferenceable(16) %"class.std::basic_istream"* @_ZNSirsERi(%"class.std::basic_istream"* nonnull align 8 dereferenceable(16), i32* nonnull align 4 dereferenceable(4)) local_unnamed_addr #0

declare nonnull align 8 dereferenceable(8) %"class.std::basic_ostream"* @_ZNSolsEi(%"class.std::basic_ostream"* nonnull align 8 dereferenceable(8), i32) local_unnamed_addr #0

; Function Attrs: argmemonly mustprogress nofree nosync nounwind willreturn
declare void @llvm.lifetime.end.p0i8(i64 immarg, i8* nocapture) #4

declare nonnull align 8 dereferenceable(8) %"class.std::basic_ostream"* @_ZNSo3putEc(%"class.std::basic_ostream"* nonnull align 8 dereferenceable(8), i8 signext) local_unnamed_addr #0

declare nonnull align 8 dereferenceable(8) %"class.std::basic_ostream"* @_ZNSo5flushEv(%"class.std::basic_ostream"* nonnull align 8 dereferenceable(8)) local_unnamed_addr #0

; Function Attrs: noreturn
declare void @_ZSt16__throw_bad_castv() local_unnamed_addr #6

declare void @_ZNKSt5ctypeIcE13_M_widen_initEv(%"class.std::ctype"* nonnull align 8 dereferenceable(570)) local_unnamed_addr #0

; Function Attrs: sspstrong uwtable
define internal void @_GLOBAL__sub_I_493.cpp() #7 section ".text.startup" {
  tail call void @_ZNSt8ios_base4InitC1Ev(%"class.std::ios_base::Init"* nonnull align 1 dereferenceable(1) @_ZStL8__ioinit)
  %1 = tail call i32 @__cxa_atexit(void (i8*)* bitcast (void (%"class.std::ios_base::Init"*)* @_ZNSt8ios_base4InitD1Ev to void (i8*)*), i8* getelementptr inbounds (%"class.std::ios_base::Init", %"class.std::ios_base::Init"* @_ZStL8__ioinit, i64 0, i32 0), i8* nonnull @__dso_handle) #9
  ret void
}

; Function Attrs: nofree nosync nounwind readnone willreturn
declare i32 @llvm.vector.reduce.smax.v4i32(<4 x i32>) #8


!llvm.module.flags = !{!0, !1, !2, !3}
!llvm.ident = !{!4}

!0 = !{i32 1, !"wchar_size", i32 4}
!1 = !{i32 7, !"PIC Level", i32 2}
!2 = !{i32 7, !"PIE Level", i32 2}
!3 = !{i32 7, !"uwtable", i32 1}
!4 = !{!"clang version 13.0.0"}
!5 = !{!6, !6, i64 0}
!6 = !{!"int", !7, i64 0}
!7 = !{!"omnipotent char", !8, i64 0}
!8 = !{!"Simple C++ TBAA"}
!9 = distinct !{!9, !10}
!10 = !{!"llvm.loop.mustprogress"}
!11 = distinct !{!11, !10, !12}
!12 = !{!"llvm.loop.isvectorized", i32 1}
!13 = distinct !{!13, !10}
!14 = distinct !{!14, !10}
!15 = distinct !{!15, !10, !16, !12}
!16 = !{!"llvm.loop.unroll.runtime.disable"}
!17 = !{!18, !18, i64 0}
!18 = !{!"vtable pointer", !8, i64 0}
!19 = !{!20, !21, i64 240}
!20 = !{!"_ZTSSt9basic_iosIcSt11char_traitsIcEE", !21, i64 216, !7, i64 224, !22, i64 225, !21, i64 232, !21, i64 240, !21, i64 248, !21, i64 256}
!21 = !{!"any pointer", !7, i64 0}
!22 = !{!"bool", !7, i64 0}
!23 = !{!24, !7, i64 56}
!24 = !{!"_ZTSSt5ctypeIcE", !21, i64 16, !22, i64 24, !21, i64 32, !21, i64 40, !21, i64 48, !7, i64 56, !7, i64 57, !7, i64 313, !7, i64 569}
!25 = !{!7, !7, i64 0}
